; Function Attrs: mustprogress uwtable
define hidden void @_ZN2bv6solver18internalize_udiv_iEP3app(ptr noundef nonnull align 8 dereferenceable(640) %0, ptr noundef %1) local_unnamed_addr #3 align 2 personality ptr @__gxx_personality_v0 {
"_ZNSt8functionIFvjPKP4exprS3_R10ref_vectorIS0_11ast_managerEEEaSIZN2bv6solver18internalize_udiv_iEP3appE3$_0EENSt9enable_ifIXsr9_CallableIT_EE5valueERS9_E4typeEOSH_.exit":
  %2 = alloca %"class.std::function.215", align 8
  call void @llvm.lifetime.start.p0(i64 32, ptr nonnull %2) #25
  %3 = ptrtoint ptr %0 to i64
  store i64 %3, ptr %2, align 8
  %.sroa.4.0..sroa_idx = getelementptr inbounds nuw i8, ptr %2, i64 8
  store i64 0, ptr %.sroa.4.0..sroa_idx, align 8
  %4 = getelementptr inbounds nuw i8, ptr %2, i64 16
  store ptr @"_ZNSt17_Function_handlerIFvjPKP4exprS3_R10ref_vectorIS0_11ast_managerEEZN2bv6solver18internalize_udiv_iEP3appE3$_0E10_M_managerERSt9_Any_dataRKSF_St18_Manager_operation", ptr %4, align 8, !tbaa !211
  %5 = getelementptr inbounds nuw i8, ptr %2, i64 24
  store ptr @"_ZNSt17_Function_handlerIFvjPKP4exprS3_R10ref_vectorIS0_11ast_managerEEZN2bv6solver18internalize_udiv_iEP3appE3$_0E9_M_invokeERKSt9_Any_dataOjOS3_SJ_S7_", ptr %5, align 8, !tbaa !211
  invoke void @_ZN2bv6solver18internalize_binaryEP3appRSt8functionIFvjPKP4exprS7_R10ref_vectorIS4_11ast_managerEEE(ptr noundef nonnull align 8 dereferenceable(640) %0, ptr noundef %1, ptr noundef nonnull align 8 dereferenceable(32) %2)
          to label %6 unwind label %13

6:                                                ; preds = %"_ZNSt8functionIFvjPKP4exprS3_R10ref_vectorIS0_11ast_managerEEEaSIZN2bv6solver18internalize_udiv_iEP3appE3$_0EENSt9enable_ifIXsr9_CallableIT_EE5valueERS9_E4typeEOSH_.exit"
  %7 = load ptr, ptr %4, align 8, !tbaa !133
  %.not.i = icmp eq ptr %7, null
  br i1 %.not.i, label %_ZNSt14_Function_baseD2Ev.exit, label %8

8:                                                ; preds = %6
  %9 = invoke noundef zeroext i1 %7(ptr noundef nonnull align 8 dereferenceable(32) %2, ptr noundef nonnull align 8 dereferenceable(32) %2, i32 noundef 3)
          to label %_ZNSt14_Function_baseD2Ev.exit unwind label %10

10:                                               ; preds = %8
  %11 = landingpad { ptr, i32 }
          catch ptr null
  %12 = extractvalue { ptr, i32 } %11, 0
  call void @__clang_call_terminate(ptr %12) #26
  unreachable

_ZNSt14_Function_baseD2Ev.exit:                   ; preds = %6, %8
  call void @llvm.lifetime.end.p0(i64 32, ptr nonnull %2) #25
  ret void

13:                                               ; preds = %"_ZNSt8functionIFvjPKP4exprS3_R10ref_vectorIS0_11ast_managerEEEaSIZN2bv6solver18internalize_udiv_iEP3appE3$_0EENSt9enable_ifIXsr9_CallableIT_EE5valueERS9_E4typeEOSH_.exit"
  %14 = landingpad { ptr, i32 }
          cleanup
  %15 = load ptr, ptr %4, align 8, !tbaa !133
  %.not.i3 = icmp eq ptr %15, null
  br i1 %.not.i3, label %_ZNSt14_Function_baseD2Ev.exit4, label %16

16:                                               ; preds = %13
  %17 = invoke noundef zeroext i1 %15(ptr noundef nonnull align 8 dereferenceable(32) %2, ptr noundef nonnull align 8 dereferenceable(32) %2, i32 noundef 3)
          to label %_ZNSt14_Function_baseD2Ev.exit4 unwind label %18

18:                                               ; preds = %16
  %19 = landingpad { ptr, i32 }
          catch ptr null
  %20 = extractvalue { ptr, i32 } %19, 0
  call void @__clang_call_terminate(ptr %20) #26
  unreachable

_ZNSt14_Function_baseD2Ev.exit4:                  ; preds = %13, %16
  call void @llvm.lifetime.end.p0(i64 32, ptr nonnull %2) #25
  resume { ptr, i32 } %14
}